target datalayout = "e-m:e-p270:32:32-p271:32:32-p272:64:64-i64:64-i128:128-f80:128-n8:16:32:64-S128"
target triple = "x86_64-pc-linux-gnu"

%struct.MultirangeType = type { i32, i32, i32 }
%struct.RangeBound = type { i64, i8, i8, i8 }

@.str.2 = private unnamed_addr constant [18 x i8] c"multirangetypes.c\00", align 1
@.str.21 = private unnamed_addr constant [30 x i8] c"multirange types do not match\00", align 1
@__func__.multirange_eq_internal = private unnamed_addr constant [23 x i8] c"multirange_eq_internal\00", align 1

; Function Attrs: nounwind uwtable
define dso_local zeroext i1 @multirange_eq_internal(ptr noundef %0, ptr noundef %1, ptr noundef %2) #0 {
  %4 = alloca i1, align 1
  %5 = alloca ptr, align 8
  %6 = alloca ptr, align 8
  %7 = alloca ptr, align 8
  %8 = alloca i32, align 4
  %9 = alloca i32, align 4
  %10 = alloca i32, align 4
  %11 = alloca %struct.RangeBound, align 8
  %12 = alloca %struct.RangeBound, align 8
  %13 = alloca %struct.RangeBound, align 8
  %14 = alloca %struct.RangeBound, align 8
  %15 = alloca i32, align 4
  store ptr %0, ptr %5, align 8
  store ptr %1, ptr %6, align 8
  store ptr %2, ptr %7, align 8
  call void @llvm.lifetime.start.p0(i64 4, ptr %8) #9
  call void @llvm.lifetime.start.p0(i64 4, ptr %9) #9
  call void @llvm.lifetime.start.p0(i64 4, ptr %10) #9
  call void @llvm.lifetime.start.p0(i64 16, ptr %11) #9
  call void @llvm.lifetime.start.p0(i64 16, ptr %12) #9
  call void @llvm.lifetime.start.p0(i64 16, ptr %13) #9
  call void @llvm.lifetime.start.p0(i64 16, ptr %14) #9
  %16 = load ptr, ptr %6, align 8
  %17 = getelementptr inbounds nuw %struct.MultirangeType, ptr %16, i32 0, i32 1
  %18 = load i32, ptr %17, align 4
  %19 = load ptr, ptr %7, align 8
  %20 = getelementptr inbounds nuw %struct.MultirangeType, ptr %19, i32 0, i32 1
  %21 = load i32, ptr %20, align 4
  %22 = icmp ne i32 %18, %21
  br i1 %22, label %23, label %34

23:                                               ; preds = %3
  br label %24

24:                                               ; preds = %23
  br i1 true, label %25, label %27

25:                                               ; preds = %24
  %26 = call zeroext i1 @errstart_cold(i32 noundef 21, ptr noundef null) #11
  br i1 %26, label %29, label %31

27:                                               ; preds = %24
  %28 = call zeroext i1 @errstart(i32 noundef 21, ptr noundef null)
  br i1 %28, label %29, label %31

29:                                               ; preds = %27, %25
  %30 = call i32 (ptr, ...) @errmsg_internal(ptr noundef @.str.21)
  call void @errfinish(ptr noundef @.str.2, i32 noundef 1878, ptr noundef @__func__.multirange_eq_internal)
  br label %31

31:                                               ; preds = %29, %27, %25
  unreachable

32:                                               ; No predecessors!
  br label %33

33:                                               ; preds = %32
  br label %34

34:                                               ; preds = %33, %3
  %35 = load ptr, ptr %6, align 8
  %36 = getelementptr inbounds nuw %struct.MultirangeType, ptr %35, i32 0, i32 2
  %37 = load i32, ptr %36, align 4
  store i32 %37, ptr %8, align 4
  %38 = load ptr, ptr %7, align 8
  %39 = getelementptr inbounds nuw %struct.MultirangeType, ptr %38, i32 0, i32 2
  %40 = load i32, ptr %39, align 4
  store i32 %40, ptr %9, align 4
  %41 = load i32, ptr %8, align 4
  %42 = load i32, ptr %9, align 4
  %43 = icmp ne i32 %41, %42
  br i1 %43, label %44, label %45

44:                                               ; preds = %34
  store i1 false, ptr %4, align 1
  store i32 1, ptr %15, align 4
  br label %70

45:                                               ; preds = %34
  store i32 0, ptr %10, align 4
  br label %46

46:                                               ; preds = %66, %45
  %47 = load i32, ptr %10, align 4
  %48 = load i32, ptr %8, align 4
  %49 = icmp slt i32 %47, %48
  br i1 %49, label %50, label %69

50:                                               ; preds = %46
  %51 = load ptr, ptr %5, align 8
  %52 = load ptr, ptr %6, align 8
  %53 = load i32, ptr %10, align 4
  call void @multirange_get_bounds(ptr noundef %51, ptr noundef %52, i32 noundef %53, ptr noundef %11, ptr noundef %12)
  %54 = load ptr, ptr %5, align 8
  %55 = load ptr, ptr %7, align 8
  %56 = load i32, ptr %10, align 4
  call void @multirange_get_bounds(ptr noundef %54, ptr noundef %55, i32 noundef %56, ptr noundef %13, ptr noundef %14)
  %57 = load ptr, ptr %5, align 8
  %58 = call i32 @range_cmp_bounds(ptr noundef %57, ptr noundef %11, ptr noundef %13)
  %59 = icmp ne i32 %58, 0
  br i1 %59, label %64, label %60

60:                                               ; preds = %50
  %61 = load ptr, ptr %5, align 8
  %62 = call i32 @range_cmp_bounds(ptr noundef %61, ptr noundef %12, ptr noundef %14)
  %63 = icmp ne i32 %62, 0
  br i1 %63, label %64, label %65

64:                                               ; preds = %60, %50
  store i1 false, ptr %4, align 1
  store i32 1, ptr %15, align 4
  br label %70

65:                                               ; preds = %60
  br label %66

66:                                               ; preds = %65
  %67 = load i32, ptr %10, align 4
  %68 = add i32 %67, 1
  store i32 %68, ptr %10, align 4
  br label %46, !llvm.loop !28

69:                                               ; preds = %46
  store i1 true, ptr %4, align 1
  store i32 1, ptr %15, align 4
  br label %70

70:                                               ; preds = %69, %64, %44
  call void @llvm.lifetime.end.p0(i64 16, ptr %14) #9
  call void @llvm.lifetime.end.p0(i64 16, ptr %13) #9
  call void @llvm.lifetime.end.p0(i64 16, ptr %12) #9
  call void @llvm.lifetime.end.p0(i64 16, ptr %11) #9
  call void @llvm.lifetime.end.p0(i64 4, ptr %10) #9
  call void @llvm.lifetime.end.p0(i64 4, ptr %9) #9
  call void @llvm.lifetime.end.p0(i64 4, ptr %8) #9
  %71 = load i1, ptr %4, align 1
  ret i1 %71
}