; Function Attrs: nounwind uwtable
define dso_local noundef zeroext i1 @multirange_eq_internal(ptr noundef %0, ptr noundef %1, ptr noundef %2) local_unnamed_addr #0 {
  %4 = alloca %struct.RangeBound, align 8
  %5 = alloca %struct.RangeBound, align 8
  %6 = alloca %struct.RangeBound, align 8
  %7 = alloca %struct.RangeBound, align 8
  call void @llvm.lifetime.start.p0(i64 16, ptr nonnull %4) #11
  call void @llvm.lifetime.start.p0(i64 16, ptr nonnull %5) #11
  call void @llvm.lifetime.start.p0(i64 16, ptr nonnull %6) #11
  call void @llvm.lifetime.start.p0(i64 16, ptr nonnull %7) #11
  %8 = getelementptr inbounds nuw i8, ptr %1, i64 4
  %9 = load i32, ptr %8, align 4
  %10 = getelementptr inbounds nuw i8, ptr %2, i64 4
  %11 = load i32, ptr %10, align 4
  %.not = icmp eq i32 %9, %11
  br i1 %.not, label %15, label %12

12:                                               ; preds = %3
  %13 = tail call zeroext i1 @errstart_cold(i32 noundef 21, ptr noundef null) #13
  tail call void @llvm.assume(i1 %13)
  %14 = tail call i32 (ptr, ...) @errmsg_internal(ptr noundef nonnull @.str.21) #11
  tail call void @errfinish(ptr noundef nonnull @.str.2, i32 noundef 1878, ptr noundef nonnull @__func__.multirange_eq_internal) #11
  unreachable

15:                                               ; preds = %3
  %16 = getelementptr inbounds nuw i8, ptr %1, i64 8
  %17 = load i32, ptr %16, align 4
  %18 = getelementptr inbounds nuw i8, ptr %2, i64 8
  %19 = load i32, ptr %18, align 4
  %.not19 = icmp eq i32 %17, %19
  br i1 %.not19, label %.preheader, label %.loopexit

.preheader:                                       ; preds = %15
  %20 = icmp sgt i32 %17, 0
  br i1 %20, label %.lr.ph, label %.loopexit

21:                                               ; preds = %24
  %22 = add nuw nsw i32 %.022, 1
  %exitcond.not = icmp eq i32 %22, %17
  br i1 %exitcond.not, label %.loopexit, label %.lr.ph, !llvm.loop !34

.lr.ph:                                           ; preds = %.preheader, %21
  %.022 = phi i32 [ %22, %21 ], [ 0, %.preheader ]
  call void @multirange_get_bounds(ptr noundef %0, ptr noundef %1, i32 noundef %.022, ptr noundef nonnull %4, ptr noundef nonnull %5)
  call void @multirange_get_bounds(ptr noundef %0, ptr noundef %2, i32 noundef %.022, ptr noundef nonnull %6, ptr noundef nonnull %7)
  %23 = call i32 @range_cmp_bounds(ptr noundef %0, ptr noundef nonnull %4, ptr noundef nonnull %6) #11
  %.not20 = icmp eq i32 %23, 0
  br i1 %.not20, label %24, label %.loopexit

24:                                               ; preds = %.lr.ph
  %25 = call i32 @range_cmp_bounds(ptr noundef %0, ptr noundef nonnull %5, ptr noundef nonnull %7) #11
  %.not21 = icmp eq i32 %25, 0
  br i1 %.not21, label %21, label %.loopexit

.loopexit:                                        ; preds = %24, %.lr.ph, %21, %.preheader, %15
  %.017 = phi i1 [ false, %15 ], [ true, %.preheader ], [ false, %24 ], [ false, %.lr.ph ], [ true, %21 ]
  call void @llvm.lifetime.end.p0(i64 16, ptr nonnull %7) #11
  call void @llvm.lifetime.end.p0(i64 16, ptr nonnull %6) #11
  call void @llvm.lifetime.end.p0(i64 16, ptr nonnull %5) #11
  call void @llvm.lifetime.end.p0(i64 16, ptr nonnull %4) #11
  ret i1 %.017
}